; Function Attrs: alwaysinline norecurse nounwind uwtable
define internal void @_ZN8LightGBM4GBDT12GetPredictAtEiPdPl.omp_outlined.63(ptr noalias noundef readonly captures(none) %0, ptr noalias readnone captures(none) %1, ptr noundef nonnull readonly align 4 captures(none) dereferenceable(4) %2, ptr noundef readonly captures(none) %3, ptr noundef nonnull readonly align 8 captures(none) dereferenceable(8) %4, ptr noundef nonnull readonly align 8 captures(none) dereferenceable(8) %5) #25 {
  %7 = alloca i32, align 4
  %8 = alloca i32, align 4
  %9 = alloca i32, align 4
  %10 = alloca i32, align 4
  %11 = load i32, ptr %2, align 4, !tbaa !174
  %12 = icmp sgt i32 %11, 0
  br i1 %12, label %13, label %34

13:                                               ; preds = %6
  %14 = add nsw i32 %11, -1
  call void @llvm.lifetime.start.p0(i64 4, ptr nonnull %7) #23
  store i32 0, ptr %7, align 4, !tbaa !174
  call void @llvm.lifetime.start.p0(i64 4, ptr nonnull %8) #23
  store i32 %14, ptr %8, align 4, !tbaa !174
  call void @llvm.lifetime.start.p0(i64 4, ptr nonnull %9) #23
  store i32 1, ptr %9, align 4, !tbaa !174
  call void @llvm.lifetime.start.p0(i64 4, ptr nonnull %10) #23
  store i32 0, ptr %10, align 4, !tbaa !174
  %15 = load i32, ptr %0, align 4, !tbaa !174
  call void @__kmpc_for_static_init_4(ptr nonnull @1, i32 %15, i32 34, ptr nonnull %10, ptr nonnull %7, ptr nonnull %8, ptr nonnull %9, i32 1, i32 1)
  %16 = load i32, ptr %8, align 4, !tbaa !174
  %17 = call i32 @llvm.smin.i32(i32 %16, i32 %14)
  store i32 %17, ptr %8, align 4, !tbaa !174
  %18 = load i32, ptr %7, align 4, !tbaa !174
  %.not21 = icmp sgt i32 %18, %17
  br i1 %.not21, label %._crit_edge23, label %.preheader.lr.ph

.preheader.lr.ph:                                 ; preds = %13
  %19 = getelementptr inbounds nuw i8, ptr %3, i64 408
  %20 = load i32, ptr %19, align 8, !tbaa !199
  %21 = icmp sgt i32 %20, 0
  %22 = load ptr, ptr %5, align 8
  %23 = load ptr, ptr %4, align 8
  br i1 %21, label %.preheader.us.preheader, label %._crit_edge23

.preheader.us.preheader:                          ; preds = %.preheader.lr.ph
  %24 = load i32, ptr %2, align 4
  %25 = sext i32 %24 to i64
  %26 = sext i32 %18 to i64
  %27 = add nsw i32 %17, 1
  %wide.trip.count = zext nneg i32 %20 to i64
  br label %.preheader.us

.preheader.us:                                    ; preds = %.preheader.us.preheader, %._crit_edge.us
  %indvars.iv26 = phi i64 [ %26, %.preheader.us.preheader ], [ %indvars.iv.next27, %._crit_edge.us ]
  br label %28

28:                                               ; preds = %.preheader.us, %28
  %indvars.iv = phi i64 [ 0, %.preheader.us ], [ %indvars.iv.next, %28 ]
  %29 = mul nsw i64 %indvars.iv, %25
  %30 = add nsw i64 %29, %indvars.iv26
  %31 = getelementptr inbounds double, ptr %22, i64 %30
  %32 = load double, ptr %31, align 8, !tbaa !314
  %33 = getelementptr inbounds double, ptr %23, i64 %30
  store double %32, ptr %33, align 8, !tbaa !314
  %indvars.iv.next = add nuw nsw i64 %indvars.iv, 1
  %exitcond.not = icmp eq i64 %indvars.iv.next, %wide.trip.count
  br i1 %exitcond.not, label %._crit_edge.us, label %28, !llvm.loop !723

._crit_edge.us:                                   ; preds = %28
  %indvars.iv.next27 = add nsw i64 %indvars.iv26, 1
  %lftr.wideiv = trunc i64 %indvars.iv.next27 to i32
  %exitcond29.not = icmp eq i32 %27, %lftr.wideiv
  br i1 %exitcond29.not, label %._crit_edge23, label %.preheader.us

._crit_edge23:                                    ; preds = %._crit_edge.us, %.preheader.lr.ph, %13
  call void @__kmpc_for_static_fini(ptr nonnull @1, i32 %15)
  call void @llvm.lifetime.end.p0(i64 4, ptr nonnull %10) #23
  call void @llvm.lifetime.end.p0(i64 4, ptr nonnull %9) #23
  call void @llvm.lifetime.end.p0(i64 4, ptr nonnull %8) #23
  call void @llvm.lifetime.end.p0(i64 4, ptr nonnull %7) #23
  br label %34

34:                                               ; preds = %._crit_edge23, %6
  ret void
}